(lp0
(lp1
(lp2
S'WaferSource'
p3
a(dp4
S'time_limit'
p5
I1
sS'name'
p6
S'0'
p7
sS'batch_size'
p8
I2
saa(lp9
S'WaferUnstacker'
p10
a(dp11
S'cassette_size'
p12
I1
sg6
g7
sS'verbose'
p13
I01
saa(lp14
S'WaferBin'
p15
a(dp16
g6
g7
sg8
I1
saaa(lp17
(lp18
I0
aa(lp19
I1
aa(lp20
I2
aaa(dp21
I0
(lp22
(lp23
I0
aI0
aa(lp24
I1
aI0
aaI90
aI20
asI1
(lp25
(lp26
I1
aI0
aa(lp27
I2
aI0
aaI90
aI20
asa(dp28
I0
(lp29
(lp30
I0
aa(dp31
g6
g7
sasI1
(lp32
(lp33
I1
aa(dp34
g6
S'1'
p35
sasa.