(lp0
(dp1
I0
(lp2
S'WaferSource'
p3
a(dp4
S'name'
p5
S'0'
p6
sS'batch_size'
p7
I100
sasI1
(lp8
S'WaferUnstacker'
p9
a(dp10
g5
g6
sS'verbose'
p11
I01
sasI2
(lp12
S'WaferBin'
p13
a(dp14
g5
g6
sasa(dp15
I0
(lp16
I0
asI1
(lp17
I1
asI2
(lp18
I2
asa(dp19
I0
(lp20
(lp21
I0
aI0
aa(lp22
I1
aI0
aaI90
aI20
asI1
(lp23
(lp24
I1
aI0
aa(lp25
I2
aI0
aaI90
aI20
asa(dp26
I0
(lp27
(lp28
I0
aa(dp29
g5
g6
sasI1
(lp30
(lp31
I1
aa(dp32
g5
S'1'
p33
sasa.