(lp0
(lp1
(lp2
S'WaferSource'
p3
a(dp4
S'name'
p5
S'0'
p6
sS'batch_size'
p7
I100
saa(lp8
S'WaferUnstacker'
p9
a(dp10
g5
g6
sS'verbose'
p11
I01
saa(lp12
S'WaferBin'
p13
a(dp14
g5
g6
saaa(lp15
(lp16
I0
aa(lp17
I1
aa(lp18
I2
aaa(lp19
(lp20
(lp21
I0
aI0
aa(lp22
I1
aI0
aaI90
aI20
aa(lp23
(lp24
I1
aI0
aa(lp25
I2
aI0
aaI90
aI20
aaa(lp26
(lp27
(lp28
I0
aa(dp29
g5
g6
saa(lp30
(lp31
I1
aa(dp32
g5
S'1'
p33
saaa.